c__builtin__
set
p0
((lp1
(I7
I35
tp2
a(I1
I35
tp3
a(I15
I24
tp4
a(I1
I26
tp5
a(I15
I35
tp6
a(I15
I30
tp7
a(I15
I41
tp8
a(I14
I24
tp9
a(I15
I33
tp10
a(I1
I41
tp11
a(I1
I28
tp12
a(I1
I39
tp13
a(I1
I30
tp14
a(I1
I33
tp15
atp16
Rp17
.