c__builtin__
set
p0
((lp1
(I0
I27
tp2
a(I13
I23
tp3
a(I0
I25
tp4
a(I0
I29
tp5
a(I0
I40
tp6
a(I14
I40
tp7
a(I0
I38
tp8
a(I0
I32
tp9
a(I14
I32
tp10
a(I6
I34
tp11
a(I14
I34
tp12
a(I14
I23
tp13
a(I0
I34
tp14
a(I14
I29
tp15
atp16
Rp17
.