c__builtin__
set
p0
((lp1
(I0
I33
tp2
a(I13
I23
tp3
a(I14
I30
tp4
a(I0
I25
tp5
a(I0
I29
tp6
a(I6
I35
tp7
a(I0
I41
tp8
a(I14
I33
tp9
a(I14
I35
tp10
a(I0
I35
tp11
a(I14
I23
tp12
a(I14
I41
tp13
atp14
Rp15
.