c__builtin__
set
p0
((lp1
(I15
I27
tp2
a(I22
I24
tp3
a(I1
I39
tp4
a(I15
I25
tp5
a(I1
I26
tp6
a(I22
I26
tp7
a(I14
I24
tp8
a(I1
I15
tp9
a(I22
I39
tp10
a(I15
I41
tp11
a(I15
I39
tp12
a(I22
I33
tp13
a(I15
I26
tp14
a(I22
I35
tp15
a(I22
I25
tp16
a(I1
I35
tp17
a(I15
I24
tp18
a(I22
I27
tp19
a(I15
I35
tp20
a(I15
I30
tp21
a(I15
I33
tp22
a(I22
I41
tp23
a(I1
I41
tp24
a(I22
I28
tp25
a(I22
I30
tp26
atp27
Rp28
.