c__builtin__
set
p0
((lp1
(I0
I27
tp2
a(I0
I32
tp3
a(I0
I25
tp4
a(I0
I14
tp5
a(I21
I23
tp6
a(I14
I24
tp7
a(I0
I38
tp8
a(I14
I26
tp9
a(I14
I40
tp10
a(I14
I29
tp11
a(I21
I25
tp12
a(I13
I23
tp13
a(I14
I34
tp14
a(I21
I32
tp15
a(I21
I27
tp16
a(I9
I38
tp17
a(I9
I40
tp18
a(I21
I29
tp19
a(I0
I34
tp20
a(I14
I38
tp21
a(I14
I23
tp22
a(I14
I32
tp23
a(I21
I38
tp24
a(I0
I40
tp25
a(I0
I29
tp26
a(I14
I25
tp27
a(I21
I24
tp28
atp29
Rp30
.